target datalayout = "e-m:e-p270:32:32-p271:32:32-p272:64:64-i64:64-i128:128-f80:128-n8:16:32:64-S128"
target triple = "x86_64-pc-linux-gnu"

%struct.strbuf = type { i64, i64, ptr }

@__const.system_path.d = private unnamed_addr constant %struct.strbuf { i64 0, i64 0, ptr @strbuf_slopbuf }, align 8
@.str = private unnamed_addr constant [6 x i8] c"%s/%s\00", align 1
@exec_path_value = internal global ptr null, align 8
@.str.1 = private unnamed_addr constant [14 x i8] c"GIT_EXEC_PATH\00", align 1
@.str.2 = private unnamed_addr constant [28 x i8] c"/usr/local/libexec/git-core\00", align 1
@.str.3 = private unnamed_addr constant [5 x i8] c"PATH\00", align 1
@__const.setup_path.new_path = private unnamed_addr constant %struct.strbuf { i64 0, i64 0, ptr @strbuf_slopbuf }, align 8
@.str.4 = private unnamed_addr constant [14 x i8] c"/usr/bin:/bin\00", align 1
@.str.10 = private unnamed_addr constant [11 x i8] c"/usr/local\00", align 1

; Function Attrs: inlinehint nounwind uwtable
define internal i32 @git_has_dos_drive_prefix(ptr noundef %0) #3 {
  %2 = alloca ptr, align 8
  store ptr %0, ptr %2, align 8, !tbaa !4
  ret i32 0
}

; Function Attrs: inlinehint nounwind uwtable
define internal i32 @git_is_dir_sep(i32 noundef %0) #3 {
  %2 = alloca i32, align 4
  store i32 %0, ptr %2, align 4, !tbaa !21
  %3 = load i32, ptr %2, align 4, !tbaa !21
  %4 = icmp eq i32 %3, 47
  %5 = zext i1 %4 to i32
  ret i32 %5
}

; Function Attrs: inlinehint nounwind uwtable
define internal i64 @strbuf_avail(ptr noundef %0) #3 {
  %2 = alloca ptr, align 8
  store ptr %0, ptr %2, align 8, !tbaa !13
  %3 = load ptr, ptr %2, align 8, !tbaa !13
  %4 = getelementptr inbounds nuw %struct.strbuf, ptr %3, i32 0, i32 0
  %5 = load i64, ptr %4, align 8, !tbaa !30
  %6 = icmp ne i64 %5, 0
  br i1 %6, label %7, label %16

7:                                                ; preds = %1
  %8 = load ptr, ptr %2, align 8, !tbaa !13
  %9 = getelementptr inbounds nuw %struct.strbuf, ptr %8, i32 0, i32 0
  %10 = load i64, ptr %9, align 8, !tbaa !30
  %11 = load ptr, ptr %2, align 8, !tbaa !13
  %12 = getelementptr inbounds nuw %struct.strbuf, ptr %11, i32 0, i32 1
  %13 = load i64, ptr %12, align 8, !tbaa !29
  %14 = sub i64 %10, %13
  %15 = sub i64 %14, 1
  br label %17

16:                                               ; preds = %1
  br label %17

17:                                               ; preds = %16, %7
  %18 = phi i64 [ %15, %7 ], [ 0, %16 ]
  ret i64 %18
}

; Function Attrs: nounwind uwtable
define internal ptr @system_prefix() #0 {
  ret ptr @.str.10
}

; Function Attrs: inlinehint nounwind uwtable
define internal i32 @is_absolute_path(ptr noundef %0) #3 {
  %2 = alloca ptr, align 8
  store ptr %0, ptr %2, align 8, !tbaa !4
  %3 = load ptr, ptr %2, align 8, !tbaa !4
  %4 = getelementptr inbounds i8, ptr %3, i64 0
  %5 = load i8, ptr %4, align 1, !tbaa !9
  %6 = sext i8 %5 to i32
  %7 = call i32 @git_is_dir_sep(i32 noundef %6)
  %8 = icmp ne i32 %7, 0
  br i1 %8, label %13, label %9

9:                                                ; preds = %1
  %10 = load ptr, ptr %2, align 8, !tbaa !4
  %11 = call i32 @git_has_dos_drive_prefix(ptr noundef %10)
  %12 = icmp ne i32 %11, 0
  br label %13

13:                                               ; preds = %9, %1
  %14 = phi i1 [ true, %1 ], [ %12, %9 ]
  %15 = zext i1 %14 to i32
  ret i32 %15
}

; Function Attrs: inlinehint nounwind uwtable
define internal void @strbuf_addch(ptr noundef %0, i32 noundef %1) #3 {
  %3 = alloca ptr, align 8
  %4 = alloca i32, align 4
  store ptr %0, ptr %3, align 8, !tbaa !13
  store i32 %1, ptr %4, align 4, !tbaa !21
  %5 = load ptr, ptr %3, align 8, !tbaa !13
  %6 = call i64 @strbuf_avail(ptr noundef %5)
  %7 = icmp ne i64 %6, 0
  br i1 %7, label %10, label %8

8:                                                ; preds = %2
  %9 = load ptr, ptr %3, align 8, !tbaa !13
  call void @strbuf_grow(ptr noundef %9, i64 noundef 1)
  br label %10

10:                                               ; preds = %8, %2
  %11 = load i32, ptr %4, align 4, !tbaa !21
  %12 = trunc i32 %11 to i8
  %13 = load ptr, ptr %3, align 8, !tbaa !13
  %14 = getelementptr inbounds nuw %struct.strbuf, ptr %13, i32 0, i32 2
  %15 = load ptr, ptr %14, align 8, !tbaa !10
  %16 = load ptr, ptr %3, align 8, !tbaa !13
  %17 = getelementptr inbounds nuw %struct.strbuf, ptr %16, i32 0, i32 1
  %18 = load i64, ptr %17, align 8, !tbaa !29
  %19 = add i64 %18, 1
  store i64 %19, ptr %17, align 8, !tbaa !29
  %20 = getelementptr inbounds nuw i8, ptr %15, i64 %18
  store i8 %12, ptr %20, align 1, !tbaa !9
  %21 = load ptr, ptr %3, align 8, !tbaa !13
  %22 = getelementptr inbounds nuw %struct.strbuf, ptr %21, i32 0, i32 2
  %23 = load ptr, ptr %22, align 8, !tbaa !10
  %24 = load ptr, ptr %3, align 8, !tbaa !13
  %25 = getelementptr inbounds nuw %struct.strbuf, ptr %24, i32 0, i32 1
  %26 = load i64, ptr %25, align 8, !tbaa !29
  %27 = getelementptr inbounds nuw i8, ptr %23, i64 %26
  store i8 0, ptr %27, align 1, !tbaa !9
  ret void
}

; Function Attrs: nounwind uwtable
define dso_local ptr @system_path(ptr noundef %0) #0 {
  %2 = alloca ptr, align 8
  %3 = alloca ptr, align 8
  %4 = alloca %struct.strbuf, align 8
  %5 = alloca i32, align 4
  store ptr %0, ptr %3, align 8, !tbaa !4
  call void @llvm.lifetime.start.p0(i64 24, ptr %4) #9
  call void @llvm.memcpy.p0.p0.i64(ptr align 8 %4, ptr align 8 @__const.system_path.d, i64 24, i1 false)
  %6 = load ptr, ptr %3, align 8, !tbaa !4
  %7 = call i32 @is_absolute_path(ptr noundef %6)
  %8 = icmp ne i32 %7, 0
  br i1 %8, label %9, label %12

9:                                                ; preds = %1
  %10 = load ptr, ptr %3, align 8, !tbaa !4
  %11 = call ptr @xstrdup(ptr noundef %10)
  store ptr %11, ptr %2, align 8
  store i32 1, ptr %5, align 4
  br label %16

12:                                               ; preds = %1
  %13 = call ptr @system_prefix()
  %14 = load ptr, ptr %3, align 8, !tbaa !4
  call void (ptr, ptr, ...) @strbuf_addf(ptr noundef %4, ptr noundef @.str, ptr noundef %13, ptr noundef %14)
  %15 = call ptr @strbuf_detach(ptr noundef %4, ptr noundef null)
  store ptr %15, ptr %2, align 8
  store i32 1, ptr %5, align 4
  br label %16

16:                                               ; preds = %12, %9
  call void @llvm.lifetime.end.p0(i64 24, ptr %4) #9
  %17 = load ptr, ptr %2, align 8
  ret ptr %17
}

; Function Attrs: inlinehint nounwind uwtable
define internal void @strbuf_addstr(ptr noundef %0, ptr noundef %1) #3 {
  %3 = alloca ptr, align 8
  %4 = alloca ptr, align 8
  store ptr %0, ptr %3, align 8, !tbaa !13
  store ptr %1, ptr %4, align 8, !tbaa !4
  %5 = load ptr, ptr %3, align 8, !tbaa !13
  %6 = load ptr, ptr %4, align 8, !tbaa !4
  %7 = load ptr, ptr %4, align 8, !tbaa !4
  %8 = call i64 @strlen(ptr noundef %7) #10
  call void @strbuf_add(ptr noundef %5, ptr noundef %6, i64 noundef %8)
  ret void
}

; Function Attrs: nounwind uwtable
define internal void @add_path(ptr noundef %0, ptr noundef %1) #0 {
  %3 = alloca ptr, align 8
  %4 = alloca ptr, align 8
  store ptr %0, ptr %3, align 8, !tbaa !13
  store ptr %1, ptr %4, align 8, !tbaa !4
  %5 = load ptr, ptr %4, align 8, !tbaa !4
  %6 = icmp ne ptr %5, null
  br i1 %6, label %7, label %16

7:                                                ; preds = %2
  %8 = load ptr, ptr %4, align 8, !tbaa !4
  %9 = load i8, ptr %8, align 1, !tbaa !9
  %10 = sext i8 %9 to i32
  %11 = icmp ne i32 %10, 0
  br i1 %11, label %12, label %16

12:                                               ; preds = %7
  %13 = load ptr, ptr %3, align 8, !tbaa !13
  %14 = load ptr, ptr %4, align 8, !tbaa !4
  call void @strbuf_add_absolute_path(ptr noundef %13, ptr noundef %14)
  %15 = load ptr, ptr %3, align 8, !tbaa !13
  call void @strbuf_addch(ptr noundef %15, i32 noundef 58)
  br label %16

16:                                               ; preds = %12, %7, %2
  ret void
}

; Function Attrs: nounwind uwtable
define dso_local void @git_set_exec_path(ptr noundef %0) #0 {
  %2 = alloca ptr, align 8
  store ptr %0, ptr %2, align 8, !tbaa !4
  %3 = load ptr, ptr %2, align 8, !tbaa !4
  store ptr %3, ptr @exec_path_value, align 8, !tbaa !4
  %4 = load ptr, ptr %2, align 8, !tbaa !4
  %5 = call i32 @setenv(ptr noundef @.str.1, ptr noundef %4, i32 noundef 1) #9
  ret void
}

; Function Attrs: nounwind uwtable
define dso_local ptr @git_exec_path() #0 {
  %1 = alloca ptr, align 8
  %2 = load ptr, ptr @exec_path_value, align 8, !tbaa !4
  %3 = icmp ne ptr %2, null
  br i1 %3, label %19, label %4

4:                                                ; preds = %0
  call void @llvm.lifetime.start.p0(i64 8, ptr %1) #9
  %5 = call ptr @getenv(ptr noundef @.str.1) #9
  store ptr %5, ptr %1, align 8, !tbaa !4
  %6 = load ptr, ptr %1, align 8, !tbaa !4
  %7 = icmp ne ptr %6, null
  br i1 %7, label %8, label %16

8:                                                ; preds = %4
  %9 = load ptr, ptr %1, align 8, !tbaa !4
  %10 = load i8, ptr %9, align 1, !tbaa !9
  %11 = sext i8 %10 to i32
  %12 = icmp ne i32 %11, 0
  br i1 %12, label %13, label %16

13:                                               ; preds = %8
  %14 = load ptr, ptr %1, align 8, !tbaa !4
  %15 = call ptr @xstrdup(ptr noundef %14)
  store ptr %15, ptr @exec_path_value, align 8, !tbaa !4
  br label %18

16:                                               ; preds = %8, %4
  %17 = call ptr @system_path(ptr noundef @.str.2)
  store ptr %17, ptr @exec_path_value, align 8, !tbaa !4
  br label %18

18:                                               ; preds = %16, %13
  call void @llvm.lifetime.end.p0(i64 8, ptr %1) #9
  br label %19

19:                                               ; preds = %18, %0
  %20 = load ptr, ptr @exec_path_value, align 8, !tbaa !4
  ret ptr %20
}

; Function Attrs: nounwind uwtable
define dso_local void @setup_path() #0 {
  %1 = alloca ptr, align 8
  %2 = alloca ptr, align 8
  %3 = alloca %struct.strbuf, align 8
  call void @llvm.lifetime.start.p0(i64 8, ptr %1) #9
  %4 = call ptr @git_exec_path()
  store ptr %4, ptr %1, align 8, !tbaa !4
  call void @llvm.lifetime.start.p0(i64 8, ptr %2) #9
  %5 = call ptr @getenv(ptr noundef @.str.3) #9
  store ptr %5, ptr %2, align 8, !tbaa !4
  call void @llvm.lifetime.start.p0(i64 24, ptr %3) #9
  call void @llvm.memcpy.p0.p0.i64(ptr align 8 %3, ptr align 8 @__const.setup_path.new_path, i64 24, i1 false)
  %6 = load ptr, ptr %1, align 8, !tbaa !4
  call void @git_set_exec_path(ptr noundef %6)
  %7 = load ptr, ptr %1, align 8, !tbaa !4
  call void @add_path(ptr noundef %3, ptr noundef %7)
  %8 = load ptr, ptr %2, align 8, !tbaa !4
  %9 = icmp ne ptr %8, null
  br i1 %9, label %10, label %12

10:                                               ; preds = %0
  %11 = load ptr, ptr %2, align 8, !tbaa !4
  call void @strbuf_addstr(ptr noundef %3, ptr noundef %11)
  br label %13

12:                                               ; preds = %0
  call void @strbuf_addstr(ptr noundef %3, ptr noundef @.str.4)
  br label %13

13:                                               ; preds = %12, %10
  %14 = getelementptr inbounds nuw %struct.strbuf, ptr %3, i32 0, i32 2
  %15 = load ptr, ptr %14, align 8, !tbaa !10
  %16 = call i32 @setenv(ptr noundef @.str.3, ptr noundef %15, i32 noundef 1) #9
  call void @strbuf_release(ptr noundef %3)
  call void @llvm.lifetime.end.p0(i64 24, ptr %3) #9
  call void @llvm.lifetime.end.p0(i64 8, ptr %2) #9
  call void @llvm.lifetime.end.p0(i64 8, ptr %1) #9
  ret void
}