; Function Attrs: nounwind uwtable
define dso_local void @setup_path() local_unnamed_addr #1 {
  %1 = alloca %struct.strbuf, align 8
  %2 = load ptr, ptr @exec_path_value, align 8, !tbaa !7
  %.not.i = icmp eq ptr %2, null
  br i1 %.not.i, label %3, label %git_exec_path.exit

3:                                                ; preds = %0
  %4 = tail call ptr @getenv(ptr noundef nonnull @.str.1) #10
  %.not3.i = icmp eq ptr %4, null
  br i1 %.not3.i, label %7, label %5

5:                                                ; preds = %3
  %6 = load i8, ptr %4, align 1, !tbaa !4
  %.not4.i = icmp eq i8 %6, 0
  br i1 %.not4.i, label %7, label %8

7:                                                ; preds = %5, %3
  br label %8

8:                                                ; preds = %7, %5
  %.str.2.sink.i = phi ptr [ @.str.2, %7 ], [ %4, %5 ]
  %9 = tail call ptr @xstrdup(ptr noundef nonnull %.str.2.sink.i) #10
  store ptr %9, ptr @exec_path_value, align 8, !tbaa !7
  br label %git_exec_path.exit

git_exec_path.exit:                               ; preds = %0, %8
  %10 = phi ptr [ %9, %8 ], [ %2, %0 ]
  %11 = tail call ptr @getenv(ptr noundef nonnull @.str.3) #10
  call void @llvm.lifetime.start.p0(i64 24, ptr nonnull %1) #10
  call void @llvm.memcpy.p0.p0.i64(ptr noundef nonnull align 8 dereferenceable(24) %1, ptr noundef nonnull align 8 dereferenceable(24) @__const.setup_path.new_path, i64 24, i1 false)
  store ptr %10, ptr @exec_path_value, align 8, !tbaa !7
  %12 = tail call i32 @setenv(ptr noundef nonnull @.str.1, ptr noundef %10, i32 noundef 1) #10
  %.not.i4 = icmp eq ptr %10, null
  br i1 %.not.i4, label %add_path.exit, label %13

13:                                               ; preds = %git_exec_path.exit
  %14 = load i8, ptr %10, align 1, !tbaa !4
  %.not5.i = icmp eq i8 %14, 0
  br i1 %.not5.i, label %add_path.exit, label %15

15:                                               ; preds = %13
  call void @strbuf_add_absolute_path(ptr noundef nonnull %1, ptr noundef nonnull %10) #10
  %16 = load i64, ptr %1, align 8, !tbaa !10
  %.not.i.i.i = icmp eq i64 %16, 0
  br i1 %.not.i.i.i, label %strbuf_avail.exit.thread.i.i, label %strbuf_avail.exit.i.i

strbuf_avail.exit.i.i:                            ; preds = %15
  %17 = getelementptr inbounds nuw i8, ptr %1, i64 8
  %18 = load i64, ptr %17, align 8, !tbaa !13
  %.neg.i.i = add i64 %18, 1
  %.not.i.i = icmp eq i64 %16, %.neg.i.i
  br i1 %.not.i.i, label %strbuf_avail.exit.thread.i.i, label %strbuf_addch.exit.i

strbuf_avail.exit.thread.i.i:                     ; preds = %strbuf_avail.exit.i.i, %15
  call void @strbuf_grow(ptr noundef nonnull %1, i64 noundef 1) #10
  %.phi.trans.insert.i.i = getelementptr inbounds nuw i8, ptr %1, i64 8
  %.pre.i.i = load i64, ptr %.phi.trans.insert.i.i, align 8, !tbaa !13
  %.pre7.i.i = add i64 %.pre.i.i, 1
  br label %strbuf_addch.exit.i

strbuf_addch.exit.i:                              ; preds = %strbuf_avail.exit.thread.i.i, %strbuf_avail.exit.i.i
  %.pre-phi.i.i = phi i64 [ %.pre7.i.i, %strbuf_avail.exit.thread.i.i ], [ %.neg.i.i, %strbuf_avail.exit.i.i ]
  %19 = phi i64 [ %.pre.i.i, %strbuf_avail.exit.thread.i.i ], [ %18, %strbuf_avail.exit.i.i ]
  %20 = getelementptr inbounds nuw i8, ptr %1, i64 16
  %21 = load ptr, ptr %20, align 8, !tbaa !14
  %22 = getelementptr inbounds nuw i8, ptr %1, i64 8
  store i64 %.pre-phi.i.i, ptr %22, align 8, !tbaa !13
  %23 = getelementptr inbounds nuw i8, ptr %21, i64 %19
  store i8 58, ptr %23, align 1, !tbaa !4
  %24 = load ptr, ptr %20, align 8, !tbaa !14
  %25 = load i64, ptr %22, align 8, !tbaa !13
  %26 = getelementptr inbounds nuw i8, ptr %24, i64 %25
  store i8 0, ptr %26, align 1, !tbaa !4
  br label %add_path.exit

add_path.exit:                                    ; preds = %git_exec_path.exit, %13, %strbuf_addch.exit.i
  %.not = icmp eq ptr %11, null
  br i1 %.not, label %29, label %27

27:                                               ; preds = %add_path.exit
  %28 = call i64 @strlen(ptr noundef nonnull dereferenceable(1) %11) #11
  call void @strbuf_add(ptr noundef nonnull %1, ptr noundef nonnull %11, i64 noundef %28) #10
  br label %30

29:                                               ; preds = %add_path.exit
  call void @strbuf_add(ptr noundef nonnull %1, ptr noundef nonnull @.str.4, i64 noundef 13) #10
  br label %30

30:                                               ; preds = %29, %27
  %31 = getelementptr inbounds nuw i8, ptr %1, i64 16
  %32 = load ptr, ptr %31, align 8, !tbaa !14
  %33 = call i32 @setenv(ptr noundef nonnull @.str.3, ptr noundef %32, i32 noundef 1) #10
  call void @strbuf_release(ptr noundef nonnull %1) #10
  call void @llvm.lifetime.end.p0(i64 24, ptr nonnull %1) #10
  ret void
}